target datalayout = "e-m:e-p270:32:32-p271:32:32-p272:64:64-i64:64-i128:128-f80:128-n8:16:32:64-S128"
target triple = "x86_64-pc-linux-gnu"

%struct.x509_st = type { %struct.x509_cinf_st, %struct.X509_algor_st, %struct.asn1_string_st, %struct.x509_sig_info_st, %struct.CRYPTO_REF_COUNT, %struct.crypto_ex_data_st, i64, i64, i32, i32, i32, i32, ptr, ptr, ptr, ptr, ptr, ptr, ptr, ptr, [20 x i8], ptr, ptr, i32, ptr, ptr, ptr }
%struct.x509_cinf_st = type { ptr, %struct.asn1_string_st, %struct.X509_algor_st, ptr, %struct.X509_val_st, ptr, ptr, ptr, ptr, ptr, %struct.ASN1_ENCODING_st }
%struct.X509_val_st = type { ptr, ptr }
%struct.ASN1_ENCODING_st = type { ptr, i64, i32 }
%struct.X509_algor_st = type { ptr, ptr }
%struct.asn1_string_st = type { i32, i32, ptr, i64 }
%struct.x509_sig_info_st = type { i32, i32, i32, i32 }
%struct.CRYPTO_REF_COUNT = type { i32 }
%struct.crypto_ex_data_st = type { ptr, ptr }
%struct.x509_store_ctx_st = type { ptr, ptr, ptr, ptr, ptr, ptr, ptr, ptr, ptr, ptr, ptr, ptr, ptr, ptr, ptr, ptr, ptr, ptr, i32, i32, ptr, ptr, i32, i32, i32, ptr, ptr, ptr, i32, i32, ptr, %struct.crypto_ex_data_st, ptr, i32, ptr, ptr, ptr }
%struct.X509_VERIFY_PARAM_st = type { ptr, i64, i32, i64, i32, i32, i32, i32, ptr, ptr, i32, ptr, ptr, i64, ptr, i64 }

@.str = private unnamed_addr constant [34 x i8] c"../openssl/crypto/x509/x509_vfy.c\00", align 1
@__func__.check_policy = private unnamed_addr constant [13 x i8] c"check_policy\00", align 1

; Function Attrs: nounwind uwtable
define internal i32 @verify_cb_cert(ptr noundef %0, ptr noundef %1, i32 noundef %2, i32 noundef %3) #0 {
  %5 = alloca ptr, align 8
  %6 = alloca ptr, align 8
  %7 = alloca i32, align 4
  %8 = alloca i32, align 4
  store ptr %0, ptr %5, align 8, !tbaa !40
  store ptr %1, ptr %6, align 8, !tbaa !3
  store i32 %2, ptr %7, align 4, !tbaa !8
  store i32 %3, ptr %8, align 4, !tbaa !8
  %9 = load i32, ptr %7, align 4, !tbaa !8
  %10 = icmp slt i32 %9, 0
  br i1 %10, label %11, label %15

11:                                               ; preds = %4
  %12 = load ptr, ptr %5, align 8, !tbaa !40
  %13 = getelementptr inbounds nuw %struct.x509_store_ctx_st, ptr %12, i32 0, i32 23
  %14 = load i32, ptr %13, align 4, !tbaa !86
  store i32 %14, ptr %7, align 4, !tbaa !8
  br label %19

15:                                               ; preds = %4
  %16 = load i32, ptr %7, align 4, !tbaa !8
  %17 = load ptr, ptr %5, align 8, !tbaa !40
  %18 = getelementptr inbounds nuw %struct.x509_store_ctx_st, ptr %17, i32 0, i32 23
  store i32 %16, ptr %18, align 4, !tbaa !86
  br label %19

19:                                               ; preds = %15, %11
  %20 = load ptr, ptr %6, align 8, !tbaa !3
  %21 = icmp ne ptr %20, null
  br i1 %21, label %22, label %24

22:                                               ; preds = %19
  %23 = load ptr, ptr %6, align 8, !tbaa !3
  br label %31

24:                                               ; preds = %19
  %25 = load ptr, ptr %5, align 8, !tbaa !40
  %26 = getelementptr inbounds nuw %struct.x509_store_ctx_st, ptr %25, i32 0, i32 20
  %27 = load ptr, ptr %26, align 8, !tbaa !61
  %28 = call ptr @ossl_check_const_X509_sk_type(ptr noundef %27)
  %29 = load i32, ptr %7, align 4, !tbaa !8
  %30 = call ptr @OPENSSL_sk_value(ptr noundef %28, i32 noundef %29)
  br label %31

31:                                               ; preds = %24, %22
  %32 = phi ptr [ %23, %22 ], [ %30, %24 ]
  %33 = load ptr, ptr %5, align 8, !tbaa !40
  %34 = getelementptr inbounds nuw %struct.x509_store_ctx_st, ptr %33, i32 0, i32 25
  store ptr %32, ptr %34, align 8, !tbaa !87
  %35 = load i32, ptr %8, align 4, !tbaa !8
  %36 = icmp ne i32 %35, 0
  br i1 %36, label %37, label %41

37:                                               ; preds = %31
  %38 = load i32, ptr %8, align 4, !tbaa !8
  %39 = load ptr, ptr %5, align 8, !tbaa !40
  %40 = getelementptr inbounds nuw %struct.x509_store_ctx_st, ptr %39, i32 0, i32 24
  store i32 %38, ptr %40, align 8, !tbaa !53
  br label %41

41:                                               ; preds = %37, %31
  %42 = load ptr, ptr %5, align 8, !tbaa !40
  %43 = getelementptr inbounds nuw %struct.x509_store_ctx_st, ptr %42, i32 0, i32 7
  %44 = load ptr, ptr %43, align 8, !tbaa !88
  %45 = load ptr, ptr %5, align 8, !tbaa !40
  %46 = call i32 %44(i32 noundef 0, ptr noundef %45)
  ret i32 %46
}

; Function Attrs: inlinehint nounwind uwtable
define internal ptr @ossl_check_const_X509_sk_type(ptr noundef %0) #3 {
  %2 = alloca ptr, align 8
  store ptr %0, ptr %2, align 8, !tbaa !60
  %3 = load ptr, ptr %2, align 8, !tbaa !60
  ret ptr %3
}

; Function Attrs: inlinehint nounwind uwtable
define internal ptr @ossl_check_X509_type(ptr noundef %0) #3 {
  %2 = alloca ptr, align 8
  store ptr %0, ptr %2, align 8, !tbaa !3
  %3 = load ptr, ptr %2, align 8, !tbaa !3
  ret ptr %3
}

; Function Attrs: inlinehint nounwind uwtable
define internal ptr @ossl_check_X509_sk_type(ptr noundef %0) #3 {
  %2 = alloca ptr, align 8
  store ptr %0, ptr %2, align 8, !tbaa !60
  %3 = load ptr, ptr %2, align 8, !tbaa !60
  ret ptr %3
}

; Function Attrs: nounwind uwtable
define internal i32 @check_policy(ptr noundef %0) #0 {
  %2 = alloca i32, align 4
  %3 = alloca ptr, align 8
  %4 = alloca i32, align 4
  %5 = alloca i32, align 4
  %6 = alloca i32, align 4
  %7 = alloca i32, align 4
  %8 = alloca ptr, align 8
  store ptr %0, ptr %3, align 8, !tbaa !40
  call void @llvm.lifetime.start.p0(i64 4, ptr %4) #8
  %9 = load ptr, ptr %3, align 8, !tbaa !40
  %10 = getelementptr inbounds nuw %struct.x509_store_ctx_st, ptr %9, i32 0, i32 30
  %11 = load ptr, ptr %10, align 8, !tbaa !117
  %12 = icmp ne ptr %11, null
  br i1 %12, label %13, label %14

13:                                               ; preds = %1
  store i32 1, ptr %2, align 4
  store i32 1, ptr %5, align 4
  br label %153

14:                                               ; preds = %1
  %15 = load ptr, ptr %3, align 8, !tbaa !40
  %16 = getelementptr inbounds nuw %struct.x509_store_ctx_st, ptr %15, i32 0, i32 33
  %17 = load i32, ptr %16, align 8, !tbaa !139
  %18 = icmp ne i32 %17, 0
  br i1 %18, label %19, label %28

19:                                               ; preds = %14
  %20 = load ptr, ptr %3, align 8, !tbaa !40
  %21 = getelementptr inbounds nuw %struct.x509_store_ctx_st, ptr %20, i32 0, i32 20
  %22 = load ptr, ptr %21, align 8, !tbaa !61
  %23 = call ptr @ossl_check_X509_sk_type(ptr noundef %22)
  %24 = call ptr @ossl_check_X509_type(ptr noundef null)
  %25 = call i32 @OPENSSL_sk_push(ptr noundef %23, ptr noundef %24)
  %26 = icmp ne i32 %25, 0
  br i1 %26, label %28, label %27

27:                                               ; preds = %19
  call void @ERR_new()
  call void @ERR_set_debug(ptr noundef @.str, i32 noundef 1779, ptr noundef @__func__.check_policy)
  call void (i32, i32, ptr, ...) @ERR_set_error(i32 noundef 11, i32 noundef 524303, ptr noundef null)
  br label %150

28:                                               ; preds = %19, %14
  %29 = load ptr, ptr %3, align 8, !tbaa !40
  %30 = getelementptr inbounds nuw %struct.x509_store_ctx_st, ptr %29, i32 0, i32 21
  %31 = load ptr, ptr %3, align 8, !tbaa !40
  %32 = getelementptr inbounds nuw %struct.x509_store_ctx_st, ptr %31, i32 0, i32 22
  %33 = load ptr, ptr %3, align 8, !tbaa !40
  %34 = getelementptr inbounds nuw %struct.x509_store_ctx_st, ptr %33, i32 0, i32 20
  %35 = load ptr, ptr %34, align 8, !tbaa !61
  %36 = load ptr, ptr %3, align 8, !tbaa !40
  %37 = getelementptr inbounds nuw %struct.x509_store_ctx_st, ptr %36, i32 0, i32 4
  %38 = load ptr, ptr %37, align 8, !tbaa !72
  %39 = getelementptr inbounds nuw %struct.X509_VERIFY_PARAM_st, ptr %38, i32 0, i32 8
  %40 = load ptr, ptr %39, align 8, !tbaa !173
  %41 = load ptr, ptr %3, align 8, !tbaa !40
  %42 = getelementptr inbounds nuw %struct.x509_store_ctx_st, ptr %41, i32 0, i32 4
  %43 = load ptr, ptr %42, align 8, !tbaa !72
  %44 = getelementptr inbounds nuw %struct.X509_VERIFY_PARAM_st, ptr %43, i32 0, i32 3
  %45 = load i64, ptr %44, align 8, !tbaa !73
  %46 = trunc i64 %45 to i32
  %47 = call i32 @X509_policy_check(ptr noundef %30, ptr noundef %32, ptr noundef %35, ptr noundef %40, i32 noundef %46)
  store i32 %47, ptr %4, align 4, !tbaa !8
  %48 = load ptr, ptr %3, align 8, !tbaa !40
  %49 = getelementptr inbounds nuw %struct.x509_store_ctx_st, ptr %48, i32 0, i32 33
  %50 = load i32, ptr %49, align 8, !tbaa !139
  %51 = icmp ne i32 %50, 0
  br i1 %51, label %52, label %58

52:                                               ; preds = %28
  %53 = load ptr, ptr %3, align 8, !tbaa !40
  %54 = getelementptr inbounds nuw %struct.x509_store_ctx_st, ptr %53, i32 0, i32 20
  %55 = load ptr, ptr %54, align 8, !tbaa !61
  %56 = call ptr @ossl_check_X509_sk_type(ptr noundef %55)
  %57 = call ptr @OPENSSL_sk_pop(ptr noundef %56)
  br label %58

58:                                               ; preds = %52, %28
  %59 = load i32, ptr %4, align 4, !tbaa !8
  %60 = icmp eq i32 %59, 0
  br i1 %60, label %61, label %62

61:                                               ; preds = %58
  call void @ERR_new()
  call void @ERR_set_debug(ptr noundef @.str, i32 noundef 1788, ptr noundef @__func__.check_policy)
  call void (i32, i32, ptr, ...) @ERR_set_error(i32 noundef 11, i32 noundef 524299, ptr noundef null)
  br label %150

62:                                               ; preds = %58
  %63 = load i32, ptr %4, align 4, !tbaa !8
  %64 = icmp eq i32 %63, -1
  br i1 %64, label %65, label %113

65:                                               ; preds = %62
  call void @llvm.lifetime.start.p0(i64 4, ptr %6) #8
  call void @llvm.lifetime.start.p0(i64 4, ptr %7) #8
  store i32 0, ptr %7, align 4, !tbaa !8
  store i32 0, ptr %6, align 4, !tbaa !8
  br label %66

66:                                               ; preds = %104, %65
  %67 = load i32, ptr %6, align 4, !tbaa !8
  %68 = load ptr, ptr %3, align 8, !tbaa !40
  %69 = getelementptr inbounds nuw %struct.x509_store_ctx_st, ptr %68, i32 0, i32 20
  %70 = load ptr, ptr %69, align 8, !tbaa !61
  %71 = call ptr @ossl_check_const_X509_sk_type(ptr noundef %70)
  %72 = call i32 @OPENSSL_sk_num(ptr noundef %71)
  %73 = icmp slt i32 %67, %72
  br i1 %73, label %74, label %107

74:                                               ; preds = %66
  call void @llvm.lifetime.start.p0(i64 8, ptr %8) #8
  %75 = load ptr, ptr %3, align 8, !tbaa !40
  %76 = getelementptr inbounds nuw %struct.x509_store_ctx_st, ptr %75, i32 0, i32 20
  %77 = load ptr, ptr %76, align 8, !tbaa !61
  %78 = call ptr @ossl_check_const_X509_sk_type(ptr noundef %77)
  %79 = load i32, ptr %6, align 4, !tbaa !8
  %80 = call ptr @OPENSSL_sk_value(ptr noundef %78, i32 noundef %79)
  store ptr %80, ptr %8, align 8, !tbaa !3
  %81 = load ptr, ptr %8, align 8, !tbaa !3
  %82 = getelementptr inbounds nuw %struct.x509_st, ptr %81, i32 0, i32 8
  %83 = load i32, ptr %82, align 8, !tbaa !12
  %84 = and i32 %83, 2048
  %85 = icmp ne i32 %84, 0
  br i1 %85, label %86, label %87

86:                                               ; preds = %74
  store i32 1, ptr %7, align 4, !tbaa !8
  br label %87

87:                                               ; preds = %86, %74
  %88 = load ptr, ptr %8, align 8, !tbaa !3
  %89 = getelementptr inbounds nuw %struct.x509_st, ptr %88, i32 0, i32 8
  %90 = load i32, ptr %89, align 8, !tbaa !12
  %91 = and i32 %90, 2048
  %92 = icmp ne i32 %91, 0
  br i1 %92, label %93, label %100

93:                                               ; preds = %87
  %94 = load ptr, ptr %3, align 8, !tbaa !40
  %95 = load ptr, ptr %8, align 8, !tbaa !3
  %96 = load i32, ptr %6, align 4, !tbaa !8
  %97 = call i32 @verify_cb_cert(ptr noundef %94, ptr noundef %95, i32 noundef %96, i32 noundef 42)
  %98 = icmp eq i32 %97, 0
  br i1 %98, label %99, label %100

99:                                               ; preds = %93
  store i32 0, ptr %2, align 4
  store i32 1, ptr %5, align 4
  br label %101

100:                                              ; preds = %93, %87
  store i32 0, ptr %5, align 4
  br label %101

101:                                              ; preds = %100, %99
  call void @llvm.lifetime.end.p0(i64 8, ptr %8) #8
  %102 = load i32, ptr %5, align 4
  switch i32 %102, label %112 [
    i32 0, label %103
  ]

103:                                              ; preds = %101
  br label %104

104:                                              ; preds = %103
  %105 = load i32, ptr %6, align 4, !tbaa !8
  %106 = add nsw i32 %105, 1
  store i32 %106, ptr %6, align 4, !tbaa !8
  br label %66, !llvm.loop !174

107:                                              ; preds = %66
  %108 = load i32, ptr %7, align 4, !tbaa !8
  %109 = icmp ne i32 %108, 0
  br i1 %109, label %111, label %110

110:                                              ; preds = %107
  call void @ERR_new()
  call void @ERR_set_debug(ptr noundef @.str, i32 noundef 1806, ptr noundef @__func__.check_policy)
  call void (i32, i32, ptr, ...) @ERR_set_error(i32 noundef 11, i32 noundef 786691, ptr noundef null)
  store i32 0, ptr %2, align 4
  store i32 1, ptr %5, align 4
  br label %112

111:                                              ; preds = %107
  store i32 1, ptr %2, align 4
  store i32 1, ptr %5, align 4
  br label %112

112:                                              ; preds = %111, %110, %101
  call void @llvm.lifetime.end.p0(i64 4, ptr %7) #8
  call void @llvm.lifetime.end.p0(i64 4, ptr %6) #8
  br label %153

113:                                              ; preds = %62
  %114 = load i32, ptr %4, align 4, !tbaa !8
  %115 = icmp eq i32 %114, -2
  br i1 %115, label %116, label %126

116:                                              ; preds = %113
  %117 = load ptr, ptr %3, align 8, !tbaa !40
  %118 = getelementptr inbounds nuw %struct.x509_store_ctx_st, ptr %117, i32 0, i32 25
  store ptr null, ptr %118, align 8, !tbaa !87
  %119 = load ptr, ptr %3, align 8, !tbaa !40
  %120 = getelementptr inbounds nuw %struct.x509_store_ctx_st, ptr %119, i32 0, i32 24
  store i32 43, ptr %120, align 8, !tbaa !53
  %121 = load ptr, ptr %3, align 8, !tbaa !40
  %122 = getelementptr inbounds nuw %struct.x509_store_ctx_st, ptr %121, i32 0, i32 7
  %123 = load ptr, ptr %122, align 8, !tbaa !88
  %124 = load ptr, ptr %3, align 8, !tbaa !40
  %125 = call i32 %123(i32 noundef 0, ptr noundef %124)
  store i32 %125, ptr %2, align 4
  store i32 1, ptr %5, align 4
  br label %153

126:                                              ; preds = %113
  %127 = load i32, ptr %4, align 4, !tbaa !8
  %128 = icmp ne i32 %127, 1
  br i1 %128, label %129, label %130

129:                                              ; preds = %126
  call void @ERR_new()
  call void @ERR_set_debug(ptr noundef @.str, i32 noundef 1818, ptr noundef @__func__.check_policy)
  call void (i32, i32, ptr, ...) @ERR_set_error(i32 noundef 11, i32 noundef 786691, ptr noundef null)
  store i32 0, ptr %2, align 4
  store i32 1, ptr %5, align 4
  br label %153

130:                                              ; preds = %126
  %131 = load ptr, ptr %3, align 8, !tbaa !40
  %132 = getelementptr inbounds nuw %struct.x509_store_ctx_st, ptr %131, i32 0, i32 4
  %133 = load ptr, ptr %132, align 8, !tbaa !72
  %134 = getelementptr inbounds nuw %struct.X509_VERIFY_PARAM_st, ptr %133, i32 0, i32 3
  %135 = load i64, ptr %134, align 8, !tbaa !73
  %136 = and i64 %135, 2048
  %137 = icmp ne i64 %136, 0
  br i1 %137, label %138, label %149

138:                                              ; preds = %130
  %139 = load ptr, ptr %3, align 8, !tbaa !40
  %140 = getelementptr inbounds nuw %struct.x509_store_ctx_st, ptr %139, i32 0, i32 25
  store ptr null, ptr %140, align 8, !tbaa !87
  %141 = load ptr, ptr %3, align 8, !tbaa !40
  %142 = getelementptr inbounds nuw %struct.x509_store_ctx_st, ptr %141, i32 0, i32 7
  %143 = load ptr, ptr %142, align 8, !tbaa !88
  %144 = load ptr, ptr %3, align 8, !tbaa !40
  %145 = call i32 %143(i32 noundef 2, ptr noundef %144)
  %146 = icmp ne i32 %145, 0
  br i1 %146, label %148, label %147

147:                                              ; preds = %138
  store i32 0, ptr %2, align 4
  store i32 1, ptr %5, align 4
  br label %153

148:                                              ; preds = %138
  br label %149

149:                                              ; preds = %148, %130
  store i32 1, ptr %2, align 4
  store i32 1, ptr %5, align 4
  br label %153

150:                                              ; preds = %61, %27
  %151 = load ptr, ptr %3, align 8, !tbaa !40
  %152 = getelementptr inbounds nuw %struct.x509_store_ctx_st, ptr %151, i32 0, i32 24
  store i32 17, ptr %152, align 8, !tbaa !53
  store i32 -1, ptr %2, align 4
  store i32 1, ptr %5, align 4
  br label %153

153:                                              ; preds = %150, %149, %147, %129, %116, %112, %13
  call void @llvm.lifetime.end.p0(i64 4, ptr %4) #8
  %154 = load i32, ptr %2, align 4
  ret i32 %154
}