; Function Attrs: nounwind uwtable
define internal i32 @check_policy(ptr noundef %0) #0 {
  %2 = getelementptr inbounds nuw i8, ptr %0, i64 216
  %3 = load ptr, ptr %2, align 8, !tbaa !121
  %.not = icmp eq ptr %3, null
  br i1 %.not, label %4, label %.loopexit

4:                                                ; preds = %1
  %5 = getelementptr inbounds nuw i8, ptr %0, i64 248
  %6 = load i32, ptr %5, align 8, !tbaa !158
  %.not40 = icmp eq i32 %6, 0
  br i1 %.not40, label %11, label %7

7:                                                ; preds = %4
  %8 = getelementptr inbounds nuw i8, ptr %0, i64 152
  %9 = load ptr, ptr %8, align 8, !tbaa !56
  %10 = tail call i32 @OPENSSL_sk_push(ptr noundef %9, ptr noundef null) #10
  %.not41 = icmp eq i32 %10, 0
  br i1 %.not41, label %68, label %11

11:                                               ; preds = %7, %4
  %12 = getelementptr inbounds nuw i8, ptr %0, i64 160
  %13 = getelementptr inbounds nuw i8, ptr %0, i64 168
  %14 = getelementptr inbounds nuw i8, ptr %0, i64 152
  %15 = load ptr, ptr %14, align 8, !tbaa !56
  %16 = getelementptr inbounds nuw i8, ptr %0, i64 32
  %17 = load ptr, ptr %16, align 8, !tbaa !49
  %18 = getelementptr inbounds nuw i8, ptr %17, i64 48
  %19 = load ptr, ptr %18, align 8, !tbaa !170
  %20 = getelementptr inbounds nuw i8, ptr %17, i64 24
  %21 = load i64, ptr %20, align 8, !tbaa !88
  %22 = trunc i64 %21 to i32
  %23 = tail call i32 @X509_policy_check(ptr noundef nonnull %12, ptr noundef nonnull %13, ptr noundef %15, ptr noundef %19, i32 noundef %22) #10
  %24 = load i32, ptr %5, align 8, !tbaa !158
  %.not42 = icmp eq i32 %24, 0
  br i1 %.not42, label %28, label %25

25:                                               ; preds = %11
  %26 = load ptr, ptr %14, align 8, !tbaa !56
  %27 = tail call ptr @OPENSSL_sk_pop(ptr noundef %26) #10
  br label %28

28:                                               ; preds = %25, %11
  switch i32 %23, label %56 [
    i32 0, label %68
    i32 -1, label %.preheader
    i32 -2, label %50
    i32 1, label %57
  ]

.preheader:                                       ; preds = %28
  %29 = load ptr, ptr %14, align 8, !tbaa !56
  %30 = tail call i32 @OPENSSL_sk_num(ptr noundef %29) #10
  %31 = icmp sgt i32 %30, 0
  br i1 %31, label %.lr.ph, label %._crit_edge.thread

.lr.ph:                                           ; preds = %.preheader
  %32 = getelementptr inbounds nuw i8, ptr %0, i64 172
  %33 = getelementptr inbounds nuw i8, ptr %0, i64 184
  %34 = getelementptr inbounds nuw i8, ptr %0, i64 176
  %35 = getelementptr inbounds nuw i8, ptr %0, i64 56
  br label %36

36:                                               ; preds = %.lr.ph, %.critedge
  %.03551 = phi i32 [ 0, %.lr.ph ], [ %spec.select, %.critedge ]
  %.03750 = phi i32 [ 0, %.lr.ph ], [ %45, %.critedge ]
  %37 = load ptr, ptr %14, align 8, !tbaa !56
  %38 = tail call ptr @OPENSSL_sk_value(ptr noundef %37, i32 noundef %.03750) #10
  %39 = getelementptr inbounds nuw i8, ptr %38, i64 232
  %40 = load i32, ptr %39, align 8, !tbaa !3
  %41 = and i32 %40, 2048
  %.not47 = icmp eq i32 %41, 0
  %spec.select = select i1 %.not47, i32 %.03551, i32 1
  br i1 %.not47, label %.critedge, label %verify_cb_cert.exit

verify_cb_cert.exit:                              ; preds = %36
  store i32 %.03750, ptr %32, align 4, !tbaa !55
  store ptr %38, ptr %33, align 8, !tbaa !57
  store i32 42, ptr %34, align 8, !tbaa !58
  %42 = load ptr, ptr %35, align 8, !tbaa !59
  %43 = tail call i32 %42(i32 noundef 0, ptr noundef nonnull %0) #10
  %44 = icmp eq i32 %43, 0
  br i1 %44, label %.loopexit, label %.critedge

.critedge:                                        ; preds = %verify_cb_cert.exit, %36
  %45 = add nuw nsw i32 %.03750, 1
  %46 = load ptr, ptr %14, align 8, !tbaa !56
  %47 = tail call i32 @OPENSSL_sk_num(ptr noundef %46) #10
  %48 = icmp slt i32 %45, %47
  br i1 %48, label %36, label %._crit_edge, !llvm.loop !171

._crit_edge:                                      ; preds = %.critedge
  %49 = icmp eq i32 %spec.select, 0
  br i1 %49, label %._crit_edge.thread, label %.loopexit

._crit_edge.thread:                               ; preds = %.preheader, %._crit_edge
  tail call void @ERR_new() #10
  tail call void @ERR_set_debug(ptr noundef nonnull @.str, i32 noundef 1806, ptr noundef nonnull @__func__.check_policy) #10
  tail call void (i32, i32, ptr, ...) @ERR_set_error(i32 noundef 11, i32 noundef 786691, ptr noundef null) #10
  br label %.loopexit

50:                                               ; preds = %28
  %51 = getelementptr inbounds nuw i8, ptr %0, i64 184
  store ptr null, ptr %51, align 8, !tbaa !57
  %52 = getelementptr inbounds nuw i8, ptr %0, i64 176
  store i32 43, ptr %52, align 8, !tbaa !58
  %53 = getelementptr inbounds nuw i8, ptr %0, i64 56
  %54 = load ptr, ptr %53, align 8, !tbaa !59
  %55 = tail call i32 %54(i32 noundef 0, ptr noundef nonnull %0) #10
  br label %.loopexit

56:                                               ; preds = %28
  tail call void @ERR_new() #10
  tail call void @ERR_set_debug(ptr noundef nonnull @.str, i32 noundef 1818, ptr noundef nonnull @__func__.check_policy) #10
  tail call void (i32, i32, ptr, ...) @ERR_set_error(i32 noundef 11, i32 noundef 786691, ptr noundef null) #10
  br label %.loopexit

57:                                               ; preds = %28
  %58 = load ptr, ptr %16, align 8, !tbaa !49
  %59 = getelementptr inbounds nuw i8, ptr %58, i64 24
  %60 = load i64, ptr %59, align 8, !tbaa !88
  %61 = and i64 %60, 2048
  %.not44 = icmp eq i64 %61, 0
  br i1 %.not44, label %67, label %62

62:                                               ; preds = %57
  %63 = getelementptr inbounds nuw i8, ptr %0, i64 184
  store ptr null, ptr %63, align 8, !tbaa !57
  %64 = getelementptr inbounds nuw i8, ptr %0, i64 56
  %65 = load ptr, ptr %64, align 8, !tbaa !59
  %66 = tail call i32 %65(i32 noundef 2, ptr noundef nonnull %0) #10
  %.not45 = icmp eq i32 %66, 0
  br i1 %.not45, label %.loopexit, label %67

67:                                               ; preds = %62, %57
  br label %.loopexit

68:                                               ; preds = %28, %7
  %.sink55 = phi i32 [ 1779, %7 ], [ 1788, %28 ]
  %.sink = phi i32 [ 524303, %7 ], [ 524299, %28 ]
  tail call void @ERR_new() #10
  tail call void @ERR_set_debug(ptr noundef nonnull @.str, i32 noundef %.sink55, ptr noundef nonnull @__func__.check_policy) #10
  tail call void (i32, i32, ptr, ...) @ERR_set_error(i32 noundef 11, i32 noundef %.sink, ptr noundef null) #10
  %69 = getelementptr inbounds nuw i8, ptr %0, i64 176
  store i32 17, ptr %69, align 8, !tbaa !58
  br label %.loopexit

.loopexit:                                        ; preds = %verify_cb_cert.exit, %62, %._crit_edge.thread, %._crit_edge, %1, %68, %67, %56, %50
  %.0 = phi i32 [ -1, %68 ], [ %55, %50 ], [ 0, %56 ], [ 1, %67 ], [ 1, %1 ], [ 0, %._crit_edge.thread ], [ 1, %._crit_edge ], [ 0, %62 ], [ 0, %verify_cb_cert.exit ]
  ret i32 %.0
}